target datalayout = "e-m:e-p270:32:32-p271:32:32-p272:64:64-i64:64-i128:128-f80:128-n8:16:32:64-S128"
target triple = "x86_64-pc-linux-gnu"

%struct.AVFormatContext = type { ptr, ptr, ptr, ptr, ptr, i32, i32, ptr, i32, ptr, i32, ptr, ptr, i64, i64, i64, i32, i32, i32, i64, i64, ptr, i32, i32, ptr, i32, i32, i32, i32, ptr, i64, i32, i32, %struct.AVIOInterruptCB, i32, i32, i32, i32, i64, i32, i32, i32, i32, i32, i32, i32, i32, i32, i32, i32, i32, i64, i32, i32, i32, i32, i32, ptr, ptr, ptr, ptr, i32, ptr, ptr, ptr, ptr, i32, ptr, ptr, i64, ptr, ptr, ptr, i64 }
%struct.AVIOInterruptCB = type { ptr, ptr }
%struct.HashContext = type { ptr, ptr, ptr, i32, i32 }
%struct.AVPacket = type { ptr, i64, i64, ptr, i32, i32, i32, ptr, i32, i64, i64, ptr, ptr, %struct.AVRational }
%struct.AVRational = type { i32, i32 }
%struct.AVStream = type { ptr, i32, i32, ptr, ptr, %struct.AVRational, i64, i64, i64, i32, i32, %struct.AVRational, ptr, %struct.AVRational, %struct.AVPacket, i32, %struct.AVRational, i32 }
%struct.AVCodecParameters = type { i32, i32, i32, ptr, i32, ptr, i32, i32, i64, i32, i32, i32, i32, i32, i32, %struct.AVRational, %struct.AVRational, i32, i32, i32, i32, i32, i32, i32, %struct.AVChannelLayout, i32, i32, i32, i32, i32, i32 }
%struct.AVChannelLayout = type { i32, i32, %union.anon.0, ptr }
%union.anon.0 = type { i64 }

@.str.17 = private unnamed_addr constant [2 x i8] c"\0A\00", align 1
@.str.26 = private unnamed_addr constant [26 x i8] c"#format: frame checksums\0A\00", align 1
@.str.27 = private unnamed_addr constant [14 x i8] c"#version: %d\0A\00", align 1
@.str.28 = private unnamed_addr constant [11 x i8] c"#hash: %s\0A\00", align 1
@.str.29 = private unnamed_addr constant [53 x i8] c"#stream#, dts,        pts, duration,     size, hash\0A\00", align 1
@.str.30 = private unnamed_addr constant [22 x i8] c"#extradata %d, %31d, \00", align 1

; Function Attrs: nounwind uwtable
define internal void @framehash_print_extradata(ptr noundef %0) #0 {
  %2 = alloca ptr, align 8
  %3 = alloca i32, align 4
  %4 = alloca ptr, align 8
  %5 = alloca ptr, align 8
  %6 = alloca ptr, align 8
  %7 = alloca [129 x i8], align 16
  store ptr %0, ptr %2, align 8, !tbaa !4
  call void @llvm.lifetime.start.p0(i64 4, ptr %3) #5
  store i32 0, ptr %3, align 4, !tbaa !44
  br label %8

8:                                                ; preds = %76, %1
  %9 = load i32, ptr %3, align 4, !tbaa !44
  %10 = load ptr, ptr %2, align 8, !tbaa !4
  %11 = getelementptr inbounds nuw %struct.AVFormatContext, ptr %10, i32 0, i32 6
  %12 = load i32, ptr %11, align 4, !tbaa !43
  %13 = icmp ult i32 %9, %12
  br i1 %13, label %14, label %79

14:                                               ; preds = %8
  call void @llvm.lifetime.start.p0(i64 8, ptr %4) #5
  %15 = load ptr, ptr %2, align 8, !tbaa !4
  %16 = getelementptr inbounds nuw %struct.AVFormatContext, ptr %15, i32 0, i32 7
  %17 = load ptr, ptr %16, align 8, !tbaa !45
  %18 = load i32, ptr %3, align 4, !tbaa !44
  %19 = sext i32 %18 to i64
  %20 = getelementptr inbounds ptr, ptr %17, i64 %19
  %21 = load ptr, ptr %20, align 8, !tbaa !46
  store ptr %21, ptr %4, align 8, !tbaa !46
  call void @llvm.lifetime.start.p0(i64 8, ptr %5) #5
  %22 = load ptr, ptr %4, align 8, !tbaa !46
  %23 = getelementptr inbounds nuw %struct.AVStream, ptr %22, i32 0, i32 3
  %24 = load ptr, ptr %23, align 8, !tbaa !48
  store ptr %24, ptr %5, align 8, !tbaa !70
  %25 = load ptr, ptr %5, align 8, !tbaa !70
  %26 = getelementptr inbounds nuw %struct.AVCodecParameters, ptr %25, i32 0, i32 3
  %27 = load ptr, ptr %26, align 8, !tbaa !71
  %28 = icmp ne ptr %27, null
  br i1 %28, label %29, label %75

29:                                               ; preds = %14
  call void @llvm.lifetime.start.p0(i64 8, ptr %6) #5
  %30 = load ptr, ptr %2, align 8, !tbaa !4
  %31 = getelementptr inbounds nuw %struct.AVFormatContext, ptr %30, i32 0, i32 3
  %32 = load ptr, ptr %31, align 8, !tbaa !11
  store ptr %32, ptr %6, align 8, !tbaa !28
  call void @llvm.lifetime.start.p0(i64 129, ptr %7) #5
  %33 = load ptr, ptr %2, align 8, !tbaa !4
  %34 = getelementptr inbounds nuw %struct.AVFormatContext, ptr %33, i32 0, i32 4
  %35 = load ptr, ptr %34, align 8, !tbaa !54
  %36 = load i32, ptr %3, align 4, !tbaa !44
  %37 = load ptr, ptr %5, align 8, !tbaa !70
  %38 = getelementptr inbounds nuw %struct.AVCodecParameters, ptr %37, i32 0, i32 4
  %39 = load i32, ptr %38, align 8, !tbaa !72
  %40 = call i32 (ptr, ptr, ...) @avio_printf(ptr noundef %35, ptr noundef @.str.30, i32 noundef %36, i32 noundef %39)
  %41 = load ptr, ptr %6, align 8, !tbaa !28
  %42 = getelementptr inbounds nuw %struct.HashContext, ptr %41, i32 0, i32 1
  %43 = load ptr, ptr %42, align 8, !tbaa !30
  %44 = getelementptr inbounds ptr, ptr %43, i64 0
  %45 = load ptr, ptr %44, align 8, !tbaa !39
  call void @av_hash_init(ptr noundef %45)
  %46 = load ptr, ptr %6, align 8, !tbaa !28
  %47 = getelementptr inbounds nuw %struct.HashContext, ptr %46, i32 0, i32 1
  %48 = load ptr, ptr %47, align 8, !tbaa !30
  %49 = getelementptr inbounds ptr, ptr %48, i64 0
  %50 = load ptr, ptr %49, align 8, !tbaa !39
  %51 = load ptr, ptr %5, align 8, !tbaa !70
  %52 = getelementptr inbounds nuw %struct.AVCodecParameters, ptr %51, i32 0, i32 3
  %53 = load ptr, ptr %52, align 8, !tbaa !71
  %54 = load ptr, ptr %5, align 8, !tbaa !70
  %55 = getelementptr inbounds nuw %struct.AVCodecParameters, ptr %54, i32 0, i32 4
  %56 = load i32, ptr %55, align 8, !tbaa !72
  %57 = sext i32 %56 to i64
  call void @av_hash_update(ptr noundef %50, ptr noundef %53, i64 noundef %57)
  %58 = load ptr, ptr %6, align 8, !tbaa !28
  %59 = getelementptr inbounds nuw %struct.HashContext, ptr %58, i32 0, i32 1
  %60 = load ptr, ptr %59, align 8, !tbaa !30
  %61 = getelementptr inbounds ptr, ptr %60, i64 0
  %62 = load ptr, ptr %61, align 8, !tbaa !39
  %63 = getelementptr inbounds [129 x i8], ptr %7, i64 0, i64 0
  call void @av_hash_final_hex(ptr noundef %62, ptr noundef %63, i32 noundef 129)
  %64 = load ptr, ptr %2, align 8, !tbaa !4
  %65 = getelementptr inbounds nuw %struct.AVFormatContext, ptr %64, i32 0, i32 4
  %66 = load ptr, ptr %65, align 8, !tbaa !54
  %67 = getelementptr inbounds [129 x i8], ptr %7, i64 0, i64 0
  %68 = getelementptr inbounds [129 x i8], ptr %7, i64 0, i64 0
  %69 = call i64 @strlen(ptr noundef %68) #6
  %70 = trunc i64 %69 to i32
  call void @avio_write(ptr noundef %66, ptr noundef %67, i32 noundef %70)
  %71 = load ptr, ptr %2, align 8, !tbaa !4
  %72 = getelementptr inbounds nuw %struct.AVFormatContext, ptr %71, i32 0, i32 4
  %73 = load ptr, ptr %72, align 8, !tbaa !54
  %74 = call i32 (ptr, ptr, ...) @avio_printf(ptr noundef %73, ptr noundef @.str.17)
  call void @llvm.lifetime.end.p0(i64 129, ptr %7) #5
  call void @llvm.lifetime.end.p0(i64 8, ptr %6) #5
  br label %75

75:                                               ; preds = %29, %14
  call void @llvm.lifetime.end.p0(i64 8, ptr %5) #5
  call void @llvm.lifetime.end.p0(i64 8, ptr %4) #5
  br label %76

76:                                               ; preds = %75
  %77 = load i32, ptr %3, align 4, !tbaa !44
  %78 = add nsw i32 %77, 1
  store i32 %78, ptr %3, align 4, !tbaa !44
  br label %8, !llvm.loop !73

79:                                               ; preds = %8
  call void @llvm.lifetime.end.p0(i64 4, ptr %3) #5
  ret void
}

; Function Attrs: nounwind uwtable
define internal i32 @framehash_write_header(ptr noundef %0) #0 {
  %2 = alloca ptr, align 8
  %3 = alloca ptr, align 8
  store ptr %0, ptr %2, align 8, !tbaa !4
  call void @llvm.lifetime.start.p0(i64 8, ptr %3) #5
  %4 = load ptr, ptr %2, align 8, !tbaa !4
  %5 = getelementptr inbounds nuw %struct.AVFormatContext, ptr %4, i32 0, i32 3
  %6 = load ptr, ptr %5, align 8, !tbaa !11
  store ptr %6, ptr %3, align 8, !tbaa !28
  %7 = load ptr, ptr %2, align 8, !tbaa !4
  %8 = getelementptr inbounds nuw %struct.AVFormatContext, ptr %7, i32 0, i32 4
  %9 = load ptr, ptr %8, align 8, !tbaa !54
  %10 = call i32 (ptr, ptr, ...) @avio_printf(ptr noundef %9, ptr noundef @.str.26)
  %11 = load ptr, ptr %2, align 8, !tbaa !4
  %12 = getelementptr inbounds nuw %struct.AVFormatContext, ptr %11, i32 0, i32 4
  %13 = load ptr, ptr %12, align 8, !tbaa !54
  %14 = load ptr, ptr %3, align 8, !tbaa !28
  %15 = getelementptr inbounds nuw %struct.HashContext, ptr %14, i32 0, i32 4
  %16 = load i32, ptr %15, align 4, !tbaa !60
  %17 = call i32 (ptr, ptr, ...) @avio_printf(ptr noundef %13, ptr noundef @.str.27, i32 noundef %16)
  %18 = load ptr, ptr %2, align 8, !tbaa !4
  %19 = getelementptr inbounds nuw %struct.AVFormatContext, ptr %18, i32 0, i32 4
  %20 = load ptr, ptr %19, align 8, !tbaa !54
  %21 = load ptr, ptr %3, align 8, !tbaa !28
  %22 = getelementptr inbounds nuw %struct.HashContext, ptr %21, i32 0, i32 1
  %23 = load ptr, ptr %22, align 8, !tbaa !30
  %24 = getelementptr inbounds ptr, ptr %23, i64 0
  %25 = load ptr, ptr %24, align 8, !tbaa !39
  %26 = call ptr @av_hash_get_name(ptr noundef %25)
  %27 = call i32 (ptr, ptr, ...) @avio_printf(ptr noundef %20, ptr noundef @.str.28, ptr noundef %26)
  %28 = load ptr, ptr %2, align 8, !tbaa !4
  call void @framehash_print_extradata(ptr noundef %28)
  %29 = load ptr, ptr %2, align 8, !tbaa !4
  %30 = call i32 @ff_framehash_write_header(ptr noundef %29)
  %31 = load ptr, ptr %2, align 8, !tbaa !4
  %32 = getelementptr inbounds nuw %struct.AVFormatContext, ptr %31, i32 0, i32 4
  %33 = load ptr, ptr %32, align 8, !tbaa !54
  %34 = call i32 (ptr, ptr, ...) @avio_printf(ptr noundef %33, ptr noundef @.str.29)
  call void @llvm.lifetime.end.p0(i64 8, ptr %3) #5
  ret i32 0
}