; Function Attrs: nounwind uwtable
define internal noundef i32 @framehash_write_header(ptr noundef %0) #0 {
  %2 = alloca [129 x i8], align 16
  %3 = getelementptr inbounds nuw i8, ptr %0, i64 24
  %4 = load ptr, ptr %3, align 8, !tbaa !4
  %5 = getelementptr inbounds nuw i8, ptr %0, i64 32
  %6 = load ptr, ptr %5, align 8, !tbaa !47
  %7 = tail call i32 (ptr, ptr, ...) @avio_printf(ptr noundef %6, ptr noundef nonnull @.str.26) #6
  %8 = load ptr, ptr %5, align 8, !tbaa !47
  %9 = getelementptr inbounds nuw i8, ptr %4, i64 28
  %10 = load i32, ptr %9, align 4, !tbaa !53
  %11 = tail call i32 (ptr, ptr, ...) @avio_printf(ptr noundef %8, ptr noundef nonnull @.str.27, i32 noundef %10) #6
  %12 = load ptr, ptr %5, align 8, !tbaa !47
  %13 = getelementptr inbounds nuw i8, ptr %4, i64 8
  %14 = load ptr, ptr %13, align 8, !tbaa !24
  %15 = load ptr, ptr %14, align 8, !tbaa !33
  %16 = tail call ptr @av_hash_get_name(ptr noundef %15) #6
  %17 = tail call i32 (ptr, ptr, ...) @avio_printf(ptr noundef %12, ptr noundef nonnull @.str.28, ptr noundef %16) #6
  %18 = getelementptr inbounds nuw i8, ptr %0, i64 44
  %19 = load i32, ptr %18, align 4, !tbaa !37
  %.not18.i = icmp eq i32 %19, 0
  br i1 %.not18.i, label %framehash_print_extradata.exit, label %.lr.ph.i

.lr.ph.i:                                         ; preds = %1
  %20 = getelementptr inbounds nuw i8, ptr %0, i64 48
  br label %21

21:                                               ; preds = %52, %.lr.ph.i
  %22 = phi i32 [ %19, %.lr.ph.i ], [ %53, %52 ]
  %indvars.iv.i = phi i64 [ 0, %.lr.ph.i ], [ %indvars.iv.next.i, %52 ]
  %23 = load ptr, ptr %20, align 8, !tbaa !38
  %24 = getelementptr inbounds nuw ptr, ptr %23, i64 %indvars.iv.i
  %25 = load ptr, ptr %24, align 8, !tbaa !39
  %26 = getelementptr inbounds nuw i8, ptr %25, i64 16
  %27 = load ptr, ptr %26, align 8, !tbaa !41
  %28 = getelementptr inbounds nuw i8, ptr %27, i64 16
  %29 = load ptr, ptr %28, align 8, !tbaa !54
  %.not.i = icmp eq ptr %29, null
  br i1 %.not.i, label %52, label %30

30:                                               ; preds = %21
  %31 = load ptr, ptr %3, align 8, !tbaa !4
  call void @llvm.lifetime.start.p0(i64 129, ptr nonnull %2) #6
  %32 = load ptr, ptr %5, align 8, !tbaa !47
  %33 = getelementptr inbounds nuw i8, ptr %27, i64 24
  %34 = load i32, ptr %33, align 8, !tbaa !55
  %35 = trunc nuw nsw i64 %indvars.iv.i to i32
  %36 = call i32 (ptr, ptr, ...) @avio_printf(ptr noundef %32, ptr noundef nonnull @.str.30, i32 noundef %35, i32 noundef %34) #6
  %37 = getelementptr inbounds nuw i8, ptr %31, i64 8
  %38 = load ptr, ptr %37, align 8, !tbaa !24
  %39 = load ptr, ptr %38, align 8, !tbaa !33
  call void @av_hash_init(ptr noundef %39) #6
  %40 = load ptr, ptr %37, align 8, !tbaa !24
  %41 = load ptr, ptr %40, align 8, !tbaa !33
  %42 = load ptr, ptr %28, align 8, !tbaa !54
  %43 = load i32, ptr %33, align 8, !tbaa !55
  %44 = sext i32 %43 to i64
  call void @av_hash_update(ptr noundef %41, ptr noundef %42, i64 noundef %44) #6
  %45 = load ptr, ptr %37, align 8, !tbaa !24
  %46 = load ptr, ptr %45, align 8, !tbaa !33
  call void @av_hash_final_hex(ptr noundef %46, ptr noundef nonnull %2, i32 noundef 129) #6
  %47 = load ptr, ptr %5, align 8, !tbaa !47
  %48 = call i64 @strlen(ptr noundef nonnull dereferenceable(1) %2) #7
  %49 = trunc i64 %48 to i32
  call void @avio_write(ptr noundef %47, ptr noundef nonnull %2, i32 noundef %49) #6
  %50 = load ptr, ptr %5, align 8, !tbaa !47
  %51 = call i32 (ptr, ptr, ...) @avio_printf(ptr noundef %50, ptr noundef nonnull @.str.17) #6
  call void @llvm.lifetime.end.p0(i64 129, ptr nonnull %2) #6
  %.pre.i = load i32, ptr %18, align 4, !tbaa !37
  br label %52

52:                                               ; preds = %30, %21
  %53 = phi i32 [ %.pre.i, %30 ], [ %22, %21 ]
  %indvars.iv.next.i = add nuw nsw i64 %indvars.iv.i, 1
  %54 = zext i32 %53 to i64
  %55 = icmp samesign ult i64 %indvars.iv.next.i, %54
  br i1 %55, label %21, label %framehash_print_extradata.exit, !llvm.loop !56

framehash_print_extradata.exit:                   ; preds = %52, %1
  %56 = call i32 @ff_framehash_write_header(ptr noundef nonnull %0) #6
  %57 = load ptr, ptr %5, align 8, !tbaa !47
  %58 = call i32 (ptr, ptr, ...) @avio_printf(ptr noundef %57, ptr noundef nonnull @.str.29) #6
  ret i32 0
}